; Function Attrs: nounwind uwtable
define ptr @SSL_get_psk_identity(ptr noundef %0) local_unnamed_addr #0 {
  %2 = icmp eq ptr %0, null
  br i1 %2, label %.thread, label %3

3:                                                ; preds = %1
  %4 = load i32, ptr %0, align 8, !tbaa !19
  %5 = icmp eq i32 %4, 0
  br i1 %5, label %.thread13, label %6

6:                                                ; preds = %3
  %7 = and i32 %4, 128
  %.not = icmp eq i32 %7, 0
  br i1 %.not, label %.thread, label %8

8:                                                ; preds = %6
  %9 = tail call ptr @ossl_quic_obj_get0_handshake_layer(ptr noundef nonnull %0) #20
  %10 = icmp eq ptr %9, null
  br i1 %10, label %.thread, label %.thread13

.thread13:                                        ; preds = %3, %8
  %11 = phi ptr [ %9, %8 ], [ %0, %3 ]
  %12 = getelementptr inbounds nuw i8, ptr %11, i64 2304
  %13 = load ptr, ptr %12, align 8, !tbaa !20
  %14 = icmp eq ptr %13, null
  br i1 %14, label %.thread, label %15

15:                                               ; preds = %.thread13
  %16 = getelementptr inbounds nuw i8, ptr %13, i64 680
  %17 = load ptr, ptr %16, align 8, !tbaa !479
  br label %.thread

.thread:                                          ; preds = %6, %1, %8, %.thread13, %15
  %.0 = phi ptr [ %17, %15 ], [ null, %.thread13 ], [ null, %8 ], [ null, %1 ], [ null, %6 ]
  ret ptr %.0
}